target datalayout = "e-m:e-p270:32:32-p271:32:32-p272:64:64-i64:64-i128:128-f80:128-n8:16:32:64-S128"
target triple = "x86_64-pc-linux-gnu"

%struct.config = type { %struct.cliConnInfo, %struct.timeval, ptr, i32, %struct.cliSSLconfig, i64, i64, i32, i32, i32, i32, i32, i32, i32, i32, i32, i32, i64, i32, i32, i32, i32, i32, i32, i32, i32, i32, i32, i32, i32, i32, ptr, ptr, i32, i32, i64, i32, i32, i64, i64, i32, i32, ptr, i32, i32, i32, i32, ptr, ptr, [128 x i8], ptr, i32, i32, i32, i32, i32, ptr, i32, i32, %struct.clusterManagerCommand, i32, i32, i32, i32, i32, i32, ptr, ptr, ptr, i32, i32 }
%struct.cliConnInfo = type { ptr, i32, i32, ptr, ptr }
%struct.timeval = type { i64, i64 }
%struct.cliSSLconfig = type { ptr, ptr, ptr, i32, ptr, ptr, ptr, ptr }
%struct.clusterManagerCommand = type { ptr, i32, ptr, ptr, i32, i32, ptr, ptr, ptr, i32, ptr, i32, i32, i32, float, ptr, ptr, ptr, i32 }
%struct.__va_list_tag = type { i32, i32, ptr, ptr }
%struct.redisReply = type { i32, i64, double, i64, ptr, [4 x i8], i64, ptr }
%struct.clusterManagerNode = type { ptr, ptr, ptr, i32, i32, i64, i64, i64, i32, ptr, ptr, i32, [16384 x i8], i32, i32, ptr, ptr, ptr, i32, i32, float, i32 }

@config = internal global %struct.config zeroinitializer, align 8
@.str.19 = private unnamed_addr constant [5 x i8] c"\1B[0m\00", align 1
@stdout = external global ptr, align 8
@.str.168 = private unnamed_addr constant [35 x i8] c"Node %s:%d replied with error:\0A%s\0A\00", align 1
@.str.190 = private unnamed_addr constant [5 x i8] c"INFO\00", align 1
@.str.202 = private unnamed_addr constant [3 x i8] c"\1B[\00", align 1
@.str.203 = private unnamed_addr constant [6 x i8] c"29;1m\00", align 1
@.str.204 = private unnamed_addr constant [6 x i8] c"33;1m\00", align 1
@.str.205 = private unnamed_addr constant [6 x i8] c"31;1m\00", align 1
@.str.206 = private unnamed_addr constant [6 x i8] c"32;1m\00", align 1
@.str.207 = private unnamed_addr constant [3 x i8] c"0m\00", align 1
@.str.208 = private unnamed_addr constant [5 x i8] c"db0:\00", align 1
@.str.209 = private unnamed_addr constant [13 x i8] c"CLUSTER INFO\00", align 1
@.str.210 = private unnamed_addr constant [20 x i8] c"cluster_known_nodes\00", align 1

; Function Attrs: inlinehint nounwind uwtable
define available_externally i32 @vprintf(ptr noalias noundef %0, ptr noundef %1) #12 {
  %3 = alloca ptr, align 8
  %4 = alloca ptr, align 8
  store ptr %0, ptr %3, align 8, !tbaa !5
  store ptr %1, ptr %4, align 8, !tbaa !449
  %5 = load ptr, ptr @stdout, align 8, !tbaa !12
  %6 = load ptr, ptr %3, align 8, !tbaa !5
  %7 = load ptr, ptr %4, align 8, !tbaa !449
  %8 = call i32 @vfprintf(ptr noundef %5, ptr noundef %6, ptr noundef %7) #15
  ret i32 %8
}

; Function Attrs: nounwind uwtable
define internal void @clusterManagerLog(i32 noundef %0, ptr noundef %1, ...) #0 {
  %3 = alloca i32, align 4
  %4 = alloca ptr, align 8
  %5 = alloca i32, align 4
  %6 = alloca [1 x %struct.__va_list_tag], align 16
  store i32 %0, ptr %3, align 4, !tbaa !10
  store ptr %1, ptr %4, align 8, !tbaa !5
  call void @llvm.lifetime.start.p0(i64 4, ptr %5) #15
  %7 = load i32, ptr getelementptr inbounds nuw (%struct.clusterManagerCommand, ptr getelementptr inbounds nuw (%struct.config, ptr @config, i32 0, i32 59), i32 0, i32 4), align 8, !tbaa !136
  %8 = and i32 %7, 256
  store i32 %8, ptr %5, align 4, !tbaa !10
  %9 = load i32, ptr %5, align 4, !tbaa !10
  %10 = icmp ne i32 %9, 0
  br i1 %10, label %11, label %25

11:                                               ; preds = %2
  %12 = call i32 (ptr, ...) @printf(ptr noundef @.str.202)
  %13 = load i32, ptr %3, align 4, !tbaa !10
  switch i32 %13, label %22 [
    i32 1, label %14
    i32 2, label %16
    i32 3, label %18
    i32 4, label %20
  ]

14:                                               ; preds = %11
  %15 = call i32 (ptr, ...) @printf(ptr noundef @.str.203)
  br label %24

16:                                               ; preds = %11
  %17 = call i32 (ptr, ...) @printf(ptr noundef @.str.204)
  br label %24

18:                                               ; preds = %11
  %19 = call i32 (ptr, ...) @printf(ptr noundef @.str.205)
  br label %24

20:                                               ; preds = %11
  %21 = call i32 (ptr, ...) @printf(ptr noundef @.str.206)
  br label %24

22:                                               ; preds = %11
  %23 = call i32 (ptr, ...) @printf(ptr noundef @.str.207)
  br label %24

24:                                               ; preds = %22, %20, %18, %16, %14
  br label %25

25:                                               ; preds = %24, %2
  call void @llvm.lifetime.start.p0(i64 24, ptr %6) #15
  %26 = getelementptr inbounds [1 x %struct.__va_list_tag], ptr %6, i64 0, i64 0
  call void @llvm.va_start.p0(ptr %26)
  %27 = load ptr, ptr %4, align 8, !tbaa !5
  %28 = getelementptr inbounds [1 x %struct.__va_list_tag], ptr %6, i64 0, i64 0
  %29 = call i32 @vprintf(ptr noundef %27, ptr noundef %28) #15
  %30 = getelementptr inbounds [1 x %struct.__va_list_tag], ptr %6, i64 0, i64 0
  call void @llvm.va_end.p0(ptr %30)
  %31 = load i32, ptr %5, align 4, !tbaa !10
  %32 = icmp ne i32 %31, 0
  br i1 %32, label %33, label %35

33:                                               ; preds = %25
  %34 = call i32 (ptr, ...) @printf(ptr noundef @.str.19)
  br label %35

35:                                               ; preds = %33, %25
  call void @llvm.lifetime.end.p0(i64 24, ptr %6) #15
  call void @llvm.lifetime.end.p0(i64 4, ptr %5) #15
  ret void
}

; Function Attrs: nounwind uwtable
define internal i32 @clusterManagerCheckRedisReply(ptr noundef %0, ptr noundef %1, ptr noundef %2) #0 {
  %4 = alloca i32, align 4
  %5 = alloca ptr, align 8
  %6 = alloca ptr, align 8
  %7 = alloca ptr, align 8
  %8 = alloca i32, align 4
  %9 = alloca i32, align 4
  store ptr %0, ptr %5, align 8, !tbaa !88
  store ptr %1, ptr %6, align 8, !tbaa !46
  store ptr %2, ptr %7, align 8, !tbaa !42
  call void @llvm.lifetime.start.p0(i64 4, ptr %8) #15
  store i32 0, ptr %8, align 4, !tbaa !10
  %10 = load ptr, ptr %6, align 8, !tbaa !46
  %11 = icmp ne ptr %10, null
  br i1 %11, label %12, label %18

12:                                               ; preds = %3
  %13 = load ptr, ptr %6, align 8, !tbaa !46
  %14 = getelementptr inbounds nuw %struct.redisReply, ptr %13, i32 0, i32 0
  %15 = load i32, ptr %14, align 8, !tbaa !68
  %16 = icmp eq i32 %15, 6
  %17 = zext i1 %16 to i32
  store i32 %17, ptr %8, align 4, !tbaa !10
  br i1 %16, label %18, label %54

18:                                               ; preds = %12, %3
  %19 = load i32, ptr %8, align 4, !tbaa !10
  %20 = icmp ne i32 %19, 0
  br i1 %20, label %21, label %53

21:                                               ; preds = %18
  %22 = load ptr, ptr %7, align 8, !tbaa !42
  %23 = icmp ne ptr %22, null
  br i1 %23, label %24, label %42

24:                                               ; preds = %21
  %25 = load ptr, ptr %6, align 8, !tbaa !46
  %26 = getelementptr inbounds nuw %struct.redisReply, ptr %25, i32 0, i32 3
  %27 = load i64, ptr %26, align 8, !tbaa !76
  %28 = add i64 %27, 1
  %29 = mul i64 %28, 1
  %30 = call noalias ptr @zmalloc(i64 noundef %29) #18
  %31 = load ptr, ptr %7, align 8, !tbaa !42
  store ptr %30, ptr %31, align 8, !tbaa !5
  %32 = load ptr, ptr %7, align 8, !tbaa !42
  %33 = load ptr, ptr %32, align 8, !tbaa !5
  %34 = load ptr, ptr %6, align 8, !tbaa !46
  %35 = getelementptr inbounds nuw %struct.redisReply, ptr %34, i32 0, i32 4
  %36 = load ptr, ptr %35, align 8, !tbaa !54
  %37 = load ptr, ptr %6, align 8, !tbaa !46
  %38 = getelementptr inbounds nuw %struct.redisReply, ptr %37, i32 0, i32 3
  %39 = load i64, ptr %38, align 8, !tbaa !76
  %40 = add i64 %39, 1
  %41 = call i64 @redis_strlcpy(ptr noundef %33, ptr noundef %36, i64 noundef %40)
  br label %52

42:                                               ; preds = %21
  %43 = load ptr, ptr %5, align 8, !tbaa !88
  %44 = getelementptr inbounds nuw %struct.clusterManagerNode, ptr %43, i32 0, i32 2
  %45 = load ptr, ptr %44, align 8, !tbaa !90
  %46 = load ptr, ptr %5, align 8, !tbaa !88
  %47 = getelementptr inbounds nuw %struct.clusterManagerNode, ptr %46, i32 0, i32 3
  %48 = load i32, ptr %47, align 8, !tbaa !93
  %49 = load ptr, ptr %6, align 8, !tbaa !46
  %50 = getelementptr inbounds nuw %struct.redisReply, ptr %49, i32 0, i32 4
  %51 = load ptr, ptr %50, align 8, !tbaa !54
  call void (i32, ptr, ...) @clusterManagerLog(i32 noundef 3, ptr noundef @.str.168, ptr noundef %45, i32 noundef %48, ptr noundef %51)
  br label %52

52:                                               ; preds = %42, %24
  br label %53

53:                                               ; preds = %52, %18
  store i32 0, ptr %4, align 4
  store i32 1, ptr %9, align 4
  br label %55

54:                                               ; preds = %12
  store i32 1, ptr %4, align 4
  store i32 1, ptr %9, align 4
  br label %55

55:                                               ; preds = %54, %53
  call void @llvm.lifetime.end.p0(i64 4, ptr %8) #15
  %56 = load i32, ptr %4, align 4
  ret i32 %56
}

; Function Attrs: nounwind uwtable
define internal ptr @clusterManagerGetNodeRedisInfo(ptr noundef %0, ptr noundef %1) #0 {
  %3 = alloca ptr, align 8
  %4 = alloca ptr, align 8
  %5 = alloca ptr, align 8
  %6 = alloca ptr, align 8
  %7 = alloca i32, align 4
  store ptr %0, ptr %4, align 8, !tbaa !88
  store ptr %1, ptr %5, align 8, !tbaa !42
  call void @llvm.lifetime.start.p0(i64 8, ptr %6) #15
  %8 = load ptr, ptr %4, align 8, !tbaa !88
  %9 = getelementptr inbounds nuw %struct.clusterManagerNode, ptr %8, i32 0, i32 0
  %10 = load ptr, ptr %9, align 8, !tbaa !126
  %11 = call ptr (ptr, ptr, ...) @redisCommand(ptr noundef %10, ptr noundef @.str.190)
  store ptr %11, ptr %6, align 8, !tbaa !46
  %12 = load ptr, ptr %5, align 8, !tbaa !42
  %13 = icmp ne ptr %12, null
  br i1 %13, label %14, label %16

14:                                               ; preds = %2
  %15 = load ptr, ptr %5, align 8, !tbaa !42
  store ptr null, ptr %15, align 8, !tbaa !5
  br label %16

16:                                               ; preds = %14, %2
  %17 = load ptr, ptr %6, align 8, !tbaa !46
  %18 = icmp eq ptr %17, null
  br i1 %18, label %19, label %20

19:                                               ; preds = %16
  store ptr null, ptr %3, align 8
  store i32 1, ptr %7, align 4
  br label %50

20:                                               ; preds = %16
  %21 = load ptr, ptr %6, align 8, !tbaa !46
  %22 = getelementptr inbounds nuw %struct.redisReply, ptr %21, i32 0, i32 0
  %23 = load i32, ptr %22, align 8, !tbaa !68
  %24 = icmp eq i32 %23, 6
  br i1 %24, label %25, label %48

25:                                               ; preds = %20
  %26 = load ptr, ptr %5, align 8, !tbaa !42
  %27 = icmp ne ptr %26, null
  br i1 %27, label %28, label %46

28:                                               ; preds = %25
  %29 = load ptr, ptr %6, align 8, !tbaa !46
  %30 = getelementptr inbounds nuw %struct.redisReply, ptr %29, i32 0, i32 3
  %31 = load i64, ptr %30, align 8, !tbaa !76
  %32 = add i64 %31, 1
  %33 = mul i64 %32, 1
  %34 = call noalias ptr @zmalloc(i64 noundef %33) #18
  %35 = load ptr, ptr %5, align 8, !tbaa !42
  store ptr %34, ptr %35, align 8, !tbaa !5
  %36 = load ptr, ptr %5, align 8, !tbaa !42
  %37 = load ptr, ptr %36, align 8, !tbaa !5
  %38 = load ptr, ptr %6, align 8, !tbaa !46
  %39 = getelementptr inbounds nuw %struct.redisReply, ptr %38, i32 0, i32 4
  %40 = load ptr, ptr %39, align 8, !tbaa !54
  %41 = load ptr, ptr %6, align 8, !tbaa !46
  %42 = getelementptr inbounds nuw %struct.redisReply, ptr %41, i32 0, i32 3
  %43 = load i64, ptr %42, align 8, !tbaa !76
  %44 = add i64 %43, 1
  %45 = call i64 @redis_strlcpy(ptr noundef %37, ptr noundef %40, i64 noundef %44)
  br label %46

46:                                               ; preds = %28, %25
  %47 = load ptr, ptr %6, align 8, !tbaa !46
  call void @freeReplyObject(ptr noundef %47)
  store ptr null, ptr %3, align 8
  store i32 1, ptr %7, align 4
  br label %50

48:                                               ; preds = %20
  %49 = load ptr, ptr %6, align 8, !tbaa !46
  store ptr %49, ptr %3, align 8
  store i32 1, ptr %7, align 4
  br label %50

50:                                               ; preds = %48, %46, %19
  call void @llvm.lifetime.end.p0(i64 8, ptr %6) #15
  %51 = load ptr, ptr %3, align 8
  ret ptr %51
}

; Function Attrs: nounwind uwtable
define internal i32 @clusterManagerNodeIsEmpty(ptr noundef %0, ptr noundef %1) #0 {
  %3 = alloca i32, align 4
  %4 = alloca ptr, align 8
  %5 = alloca ptr, align 8
  %6 = alloca ptr, align 8
  %7 = alloca i32, align 4
  %8 = alloca i32, align 4
  %9 = alloca i64, align 8
  store ptr %0, ptr %4, align 8, !tbaa !88
  store ptr %1, ptr %5, align 8, !tbaa !42
  call void @llvm.lifetime.start.p0(i64 8, ptr %6) #15
  %10 = load ptr, ptr %4, align 8, !tbaa !88
  %11 = load ptr, ptr %5, align 8, !tbaa !42
  %12 = call ptr @clusterManagerGetNodeRedisInfo(ptr noundef %10, ptr noundef %11)
  store ptr %12, ptr %6, align 8, !tbaa !46
  call void @llvm.lifetime.start.p0(i64 4, ptr %7) #15
  store i32 1, ptr %7, align 4, !tbaa !10
  %13 = load ptr, ptr %6, align 8, !tbaa !46
  %14 = icmp eq ptr %13, null
  br i1 %14, label %15, label %16

15:                                               ; preds = %2
  store i32 0, ptr %3, align 4
  store i32 1, ptr %8, align 4
  br label %51

16:                                               ; preds = %2
  %17 = load ptr, ptr %6, align 8, !tbaa !46
  %18 = getelementptr inbounds nuw %struct.redisReply, ptr %17, i32 0, i32 4
  %19 = load ptr, ptr %18, align 8, !tbaa !54
  %20 = call ptr @strstr(ptr noundef %19, ptr noundef @.str.208) #16
  %21 = icmp ne ptr %20, null
  br i1 %21, label %22, label %23

22:                                               ; preds = %16
  store i32 0, ptr %7, align 4, !tbaa !10
  br label %48

23:                                               ; preds = %16
  %24 = load ptr, ptr %6, align 8, !tbaa !46
  call void @freeReplyObject(ptr noundef %24)
  %25 = load ptr, ptr %4, align 8, !tbaa !88
  %26 = getelementptr inbounds nuw %struct.clusterManagerNode, ptr %25, i32 0, i32 0
  %27 = load ptr, ptr %26, align 8, !tbaa !126
  %28 = call ptr (ptr, ptr, ...) @redisCommand(ptr noundef %27, ptr noundef @.str.209)
  store ptr %28, ptr %6, align 8, !tbaa !46
  %29 = load ptr, ptr %5, align 8, !tbaa !42
  %30 = icmp ne ptr %29, null
  br i1 %30, label %31, label %33

31:                                               ; preds = %23
  %32 = load ptr, ptr %5, align 8, !tbaa !42
  store ptr null, ptr %32, align 8, !tbaa !5
  br label %33

33:                                               ; preds = %31, %23
  %34 = load ptr, ptr %4, align 8, !tbaa !88
  %35 = load ptr, ptr %6, align 8, !tbaa !46
  %36 = load ptr, ptr %5, align 8, !tbaa !42
  %37 = call i32 @clusterManagerCheckRedisReply(ptr noundef %34, ptr noundef %35, ptr noundef %36)
  %38 = icmp ne i32 %37, 0
  br i1 %38, label %40, label %39

39:                                               ; preds = %33
  store i32 0, ptr %7, align 4, !tbaa !10
  br label %48

40:                                               ; preds = %33
  %41 = load ptr, ptr %6, align 8, !tbaa !46
  %42 = getelementptr inbounds nuw %struct.redisReply, ptr %41, i32 0, i32 4
  %43 = load ptr, ptr %42, align 8, !tbaa !54
  %44 = call i64 @getLongInfoField(ptr noundef %43, ptr noundef @.str.210)
  store i64 %44, ptr %9, align 8, !tbaa !27
  %45 = load i64, ptr %9, align 8, !tbaa !27
  %46 = icmp eq i64 %45, 1
  %47 = zext i1 %46 to i32
  store i32 %47, ptr %7, align 4, !tbaa !10
  br label %48

48:                                               ; preds = %40, %39, %22
  %49 = load ptr, ptr %6, align 8, !tbaa !46
  call void @freeReplyObject(ptr noundef %49)
  %50 = load i32, ptr %7, align 4, !tbaa !10
  store i32 %50, ptr %3, align 4
  store i32 1, ptr %8, align 4
  br label %51

51:                                               ; preds = %48, %15
  call void @llvm.lifetime.end.p0(i64 4, ptr %7) #15
  call void @llvm.lifetime.end.p0(i64 8, ptr %6) #15
  %52 = load i32, ptr %3, align 4
  ret i32 %52
}