; Function Attrs: nounwind uwtable
define internal fastcc range(i32 0, 2) i32 @clusterManagerNodeIsEmpty(ptr noundef readonly captures(none) %0, ptr noundef nonnull writeonly captures(none) initializes((0, 8)) %1) unnamed_addr #0 {
  %.val = load ptr, ptr %0, align 8, !tbaa !82
  %3 = tail call ptr (ptr, ptr, ...) @redisCommand(ptr noundef %.val, ptr noundef nonnull @.str.190) #33
  store ptr null, ptr %1, align 8, !tbaa !24
  %4 = icmp eq ptr %3, null
  br i1 %4, label %clusterManagerGetNodeRedisInfo.exit.thread, label %5

5:                                                ; preds = %2
  %6 = load i32, ptr %3, align 8, !tbaa !56
  %7 = icmp eq i32 %6, 6
  br i1 %7, label %8, label %clusterManagerGetNodeRedisInfo.exit

8:                                                ; preds = %5
  %9 = getelementptr inbounds nuw i8, ptr %3, i64 24
  %10 = load i64, ptr %9, align 8, !tbaa !64
  %11 = add i64 %10, 1
  %12 = tail call noalias ptr @zmalloc(i64 noundef %11) #37
  store ptr %12, ptr %1, align 8, !tbaa !24
  %13 = getelementptr inbounds nuw i8, ptr %3, i64 32
  %14 = load ptr, ptr %13, align 8, !tbaa !36
  %15 = load i64, ptr %9, align 8, !tbaa !64
  %16 = add i64 %15, 1
  %17 = tail call i64 @redis_strlcpy(ptr noundef %12, ptr noundef %14, i64 noundef %16) #33
  br label %clusterManagerGetNodeRedisInfo.exit.thread.sink.split

clusterManagerGetNodeRedisInfo.exit:              ; preds = %5
  %18 = getelementptr inbounds nuw i8, ptr %3, i64 32
  %19 = load ptr, ptr %18, align 8, !tbaa !36
  %20 = tail call ptr @strstr(ptr noundef nonnull dereferenceable(1) %19, ptr noundef nonnull dereferenceable(1) @.str.208) #35
  %.not = icmp eq ptr %20, null
  br i1 %.not, label %.split18, label %clusterManagerGetNodeRedisInfo.exit.thread.sink.split

.split18:                                         ; preds = %clusterManagerGetNodeRedisInfo.exit
  tail call void @freeReplyObject(ptr noundef nonnull %3) #33
  %21 = load ptr, ptr %0, align 8, !tbaa !82
  %22 = tail call ptr (ptr, ptr, ...) @redisCommand(ptr noundef %21, ptr noundef nonnull @.str.209) #33
  store ptr null, ptr %1, align 8, !tbaa !24
  %.not.i = icmp eq ptr %22, null
  br i1 %.not.i, label %clusterManagerGetNodeRedisInfo.exit.thread.sink.split, label %23

23:                                               ; preds = %.split18
  %24 = load i32, ptr %22, align 8, !tbaa !56
  %.not19.i = icmp eq i32 %24, 6
  br i1 %.not19.i, label %.critedge18.i, label %clusterManagerCheckRedisReply.exit

.critedge18.i:                                    ; preds = %23
  %25 = getelementptr inbounds nuw i8, ptr %22, i64 24
  %26 = load i64, ptr %25, align 8, !tbaa !64
  %27 = add i64 %26, 1
  %28 = tail call noalias ptr @zmalloc(i64 noundef %27) #37
  store ptr %28, ptr %1, align 8, !tbaa !24
  %29 = getelementptr inbounds nuw i8, ptr %22, i64 32
  %30 = load ptr, ptr %29, align 8, !tbaa !36
  %31 = load i64, ptr %25, align 8, !tbaa !64
  %32 = add i64 %31, 1
  %33 = tail call i64 @redis_strlcpy(ptr noundef %28, ptr noundef %30, i64 noundef %32) #33
  br label %clusterManagerGetNodeRedisInfo.exit.thread.sink.split

clusterManagerCheckRedisReply.exit:               ; preds = %23
  %34 = getelementptr inbounds nuw i8, ptr %22, i64 32
  %35 = load ptr, ptr %34, align 8, !tbaa !36
  %36 = tail call fastcc i64 @getLongInfoField(ptr noundef %35, ptr noundef nonnull @.str.210)
  %37 = icmp eq i64 %36, 1
  %38 = zext i1 %37 to i32
  br label %clusterManagerGetNodeRedisInfo.exit.thread.sink.split

clusterManagerGetNodeRedisInfo.exit.thread.sink.split: ; preds = %clusterManagerCheckRedisReply.exit, %clusterManagerGetNodeRedisInfo.exit, %.split18, %.critedge18.i, %8
  %.sink = phi ptr [ %3, %8 ], [ %22, %clusterManagerCheckRedisReply.exit ], [ %3, %clusterManagerGetNodeRedisInfo.exit ], [ null, %.split18 ], [ %22, %.critedge18.i ]
  %.0.ph = phi i32 [ 0, %8 ], [ %38, %clusterManagerCheckRedisReply.exit ], [ 0, %clusterManagerGetNodeRedisInfo.exit ], [ 0, %.split18 ], [ 0, %.critedge18.i ]
  tail call void @freeReplyObject(ptr noundef %.sink) #33
  br label %clusterManagerGetNodeRedisInfo.exit.thread

clusterManagerGetNodeRedisInfo.exit.thread:       ; preds = %clusterManagerGetNodeRedisInfo.exit.thread.sink.split, %2
  %.0 = phi i32 [ 0, %2 ], [ %.0.ph, %clusterManagerGetNodeRedisInfo.exit.thread.sink.split ]
  ret i32 %.0
}